target datalayout = "e-m:e-p270:32:32-p271:32:32-p272:64:64-i64:64-i128:128-f80:128-n8:16:32:64-S128"
target triple = "x86_64-pc-linux-gnu"

%class.aig_lit = type { ptr }
%class.aig_ref = type { ptr, ptr }
%class.aig_manager = type { ptr }

@_ZN7aig_refC1ER11aig_managerRK7aig_lit = hidden unnamed_addr alias void (ptr, ptr, ptr), ptr @_ZN7aig_refC2ER11aig_managerRK7aig_lit

; Function Attrs: mustprogress nounwind uwtable
define linkonce_odr hidden void @_ZN7aig_litC2ERK7aig_ref(ptr noundef nonnull align 8 dereferenceable(8) %0, ptr noundef nonnull align 8 dereferenceable(16) %1) unnamed_addr #4 comdat align 2 {
  %3 = alloca ptr, align 8
  %4 = alloca ptr, align 8
  store ptr %0, ptr %3, align 8, !tbaa !3
  store ptr %1, ptr %4, align 8, !tbaa !12
  %5 = load ptr, ptr %3, align 8
  %6 = getelementptr inbounds nuw %class.aig_lit, ptr %5, i32 0, i32 0
  %7 = load ptr, ptr %4, align 8, !tbaa !12
  %8 = getelementptr inbounds nuw %class.aig_ref, ptr %7, i32 0, i32 1
  %9 = load ptr, ptr %8, align 8, !tbaa !17
  store ptr %9, ptr %6, align 8, !tbaa !10
  ret void
}

; Function Attrs: mustprogress uwtable
define hidden void @_ZN11aig_manager6mk_iteERK7aig_refS2_S2_(ptr dead_on_unwind noalias writable sret(%class.aig_ref) align 8 %0, ptr noundef nonnull align 8 dereferenceable(8) %1, ptr noundef nonnull align 8 dereferenceable(16) %2, ptr noundef nonnull align 8 dereferenceable(16) %3, ptr noundef nonnull align 8 dereferenceable(16) %4) #5 align 2 {
  %6 = alloca ptr, align 8
  %7 = alloca ptr, align 8
  %8 = alloca ptr, align 8
  %9 = alloca ptr, align 8
  %10 = alloca ptr, align 8
  %11 = alloca %class.aig_lit, align 8
  %12 = alloca %class.aig_lit, align 8
  %13 = alloca %class.aig_lit, align 8
  %14 = alloca %class.aig_lit, align 8
  store ptr %0, ptr %6, align 8
  store ptr %1, ptr %7, align 8, !tbaa !18
  store ptr %2, ptr %8, align 8, !tbaa !12
  store ptr %3, ptr %9, align 8, !tbaa !12
  store ptr %4, ptr %10, align 8, !tbaa !12
  %15 = load ptr, ptr %7, align 8
  call void @llvm.lifetime.start.p0(i64 8, ptr %11) #3
  %16 = getelementptr inbounds nuw %class.aig_manager, ptr %15, i32 0, i32 0
  %17 = load ptr, ptr %16, align 8, !tbaa !19
  %18 = load ptr, ptr %8, align 8, !tbaa !12
  call void @_ZN7aig_litC2ERK7aig_ref(ptr noundef nonnull align 8 dereferenceable(8) %12, ptr noundef nonnull align 8 dereferenceable(16) %18)
  %19 = load ptr, ptr %9, align 8, !tbaa !12
  call void @_ZN7aig_litC2ERK7aig_ref(ptr noundef nonnull align 8 dereferenceable(8) %13, ptr noundef nonnull align 8 dereferenceable(16) %19)
  %20 = load ptr, ptr %10, align 8, !tbaa !12
  call void @_ZN7aig_litC2ERK7aig_ref(ptr noundef nonnull align 8 dereferenceable(8) %14, ptr noundef nonnull align 8 dereferenceable(16) %20)
  %21 = getelementptr inbounds nuw %class.aig_lit, ptr %12, i32 0, i32 0
  %22 = load ptr, ptr %21, align 8
  %23 = getelementptr inbounds nuw %class.aig_lit, ptr %13, i32 0, i32 0
  %24 = load ptr, ptr %23, align 8
  %25 = getelementptr inbounds nuw %class.aig_lit, ptr %14, i32 0, i32 0
  %26 = load ptr, ptr %25, align 8
  %27 = call ptr @_ZN11aig_manager3imp6mk_iteE7aig_litS1_S1_(ptr noundef nonnull align 8 dereferenceable(680) %17, ptr %22, ptr %24, ptr %26)
  %28 = getelementptr inbounds nuw %class.aig_lit, ptr %11, i32 0, i32 0
  store ptr %27, ptr %28, align 8
  call void @_ZN7aig_refC1ER11aig_managerRK7aig_lit(ptr noundef nonnull align 8 dereferenceable(16) %0, ptr noundef nonnull align 8 dereferenceable(8) %15, ptr noundef nonnull align 8 dereferenceable(8) %11)
  call void @llvm.lifetime.end.p0(i64 8, ptr %11) #3
  ret void
}