; Function Attrs: mustprogress uwtable
define hidden void @_ZN11aig_manager6mk_iteERK7aig_refS2_S2_(ptr dead_on_unwind noalias writable writeonly sret(%class.aig_ref) align 8 captures(none) initializes((0, 16)) %0, ptr noundef nonnull align 8 dereferenceable(8) %1, ptr noundef nonnull readonly align 8 captures(none) dereferenceable(16) %2, ptr noundef nonnull readonly align 8 captures(none) dereferenceable(16) %3, ptr noundef nonnull readonly align 8 captures(none) dereferenceable(16) %4) local_unnamed_addr #6 align 2 {
  %6 = load ptr, ptr %1, align 8, !tbaa !16
  %7 = getelementptr inbounds nuw i8, ptr %2, i64 8
  %8 = load ptr, ptr %7, align 8, !tbaa !12
  %9 = getelementptr inbounds nuw i8, ptr %3, i64 8
  %10 = load ptr, ptr %9, align 8, !tbaa !12
  %11 = getelementptr inbounds nuw i8, ptr %4, i64 8
  %12 = load ptr, ptr %11, align 8, !tbaa !12
  %13 = tail call ptr @_ZN11aig_manager3imp6mk_iteE7aig_litS1_S1_(ptr noundef nonnull align 8 dereferenceable(680) %6, ptr %8, ptr %10, ptr %12)
  store ptr %1, ptr %0, align 8, !tbaa !3
  %14 = getelementptr inbounds nuw i8, ptr %0, i64 8
  store ptr %13, ptr %14, align 8, !tbaa !12
  %15 = ptrtoint ptr %13 to i64
  %16 = and i64 %15, -2
  %17 = inttoptr i64 %16 to ptr
  %18 = getelementptr inbounds nuw i8, ptr %17, i64 4
  %19 = load i32, ptr %18, align 4, !tbaa !13
  %20 = add i32 %19, 1
  store i32 %20, ptr %18, align 4, !tbaa !13
  ret void
}